; Function Attrs: nounwind uwtable
define ptr @l_Lean_Meta_withLetDecl___at_Lean_Meta_forEachExpr_x27_visit___spec__10___rarg___lambda__1___boxed(ptr noundef %0, ptr noundef %1, ptr noundef %2, ptr noundef %3, ptr noundef %4, ptr noundef %5, ptr noundef %6, ptr noundef %7, ptr noundef %8, ptr noundef %9, ptr noundef %10, ptr noundef %11) #0 {
  %13 = ptrtoint ptr %5 to i64
  %14 = and i64 %13, 1
  %.not = icmp eq i64 %14, 0
  br i1 %.not, label %15, label %lean_dec.exit

15:                                               ; preds = %12
  %16 = load i32, ptr %5, align 4, !tbaa !4
  %17 = icmp sgt i32 %16, 1
  br i1 %17, label %18, label %20, !prof !13

18:                                               ; preds = %15
  %19 = add nsw i32 %16, -1
  store i32 %19, ptr %5, align 4, !tbaa !4
  br label %lean_dec.exit

20:                                               ; preds = %15
  %.not.i = icmp eq i32 %16, 0
  br i1 %.not.i, label %lean_dec.exit, label %21

21:                                               ; preds = %20
  tail call void @lean_dec_ref_cold(ptr noundef nonnull %5) #4
  br label %lean_dec.exit

lean_dec.exit:                                    ; preds = %21, %20, %18, %12
  tail call void @lean_inc_heartbeat() #4
  %22 = tail call noalias ptr @mi_malloc_small(i64 noundef 48) #4
  %23 = icmp eq ptr %22, null
  br i1 %23, label %24, label %l_Lean_Meta_withLetDecl___at_Lean_Meta_forEachExpr_x27_visit___spec__10___rarg___lambda__1.exit

24:                                               ; preds = %lean_dec.exit
  tail call void @lean_internal_panic_out_of_memory() #5
  unreachable

l_Lean_Meta_withLetDecl___at_Lean_Meta_forEachExpr_x27_visit___spec__10___rarg___lambda__1.exit: ; preds = %lean_dec.exit
  %25 = lshr i64 %13, 1
  %26 = trunc i64 %25 to i8
  %27 = getelementptr inbounds nuw i8, ptr %22, i64 4
  store i32 1, ptr %22, align 4, !tbaa !4
  store i32 -184549328, ptr %27, align 4
  %28 = getelementptr inbounds nuw i8, ptr %22, i64 8
  store ptr @l_Lean_Meta_withLocalDecl___at_Lean_Meta_forEachExpr_x27_visit___spec__4___rarg___lambda__1, ptr %28, align 8, !tbaa !9
  %29 = getelementptr inbounds nuw i8, ptr %22, i64 16
  store i16 9, ptr %29, align 8, !tbaa !11
  %30 = getelementptr inbounds nuw i8, ptr %22, i64 18
  store i16 3, ptr %30, align 2, !tbaa !11
  %31 = getelementptr inbounds nuw i8, ptr %22, i64 24
  store ptr %0, ptr %31, align 8, !tbaa !9
  %32 = getelementptr inbounds nuw i8, ptr %22, i64 32
  store ptr %1, ptr %32, align 8, !tbaa !9
  %33 = getelementptr inbounds nuw i8, ptr %22, i64 40
  store ptr %6, ptr %33, align 8, !tbaa !9
  %34 = tail call ptr @l___private_Lean_Meta_Basic_0__Lean_Meta_withLetDeclImp___rarg(ptr noundef %2, ptr noundef %3, ptr noundef %4, ptr noundef nonnull %22, i8 noundef zeroext %26, ptr noundef %7, ptr noundef %8, ptr noundef %9, ptr noundef %10, ptr noundef %11) #4
  ret ptr %34
}